target datalayout = "e-m:e-p270:32:32-p271:32:32-p272:64:64-i64:64-i128:128-f80:128-n8:16:32:64-S128"
target triple = "x86_64-pc-linux-gnu"

%struct.mbedtls_gcm_context = type { %struct.mbedtls_cipher_context_t, [16 x [2 x i64]], i64, i64, [16 x i8], [16 x i8], [16 x i8], i8, i8 }
%struct.mbedtls_cipher_context_t = type { ptr, i32, i32, ptr, ptr, [16 x i8], i64, [16 x i8], i64, ptr, ptr }

; Function Attrs: alwaysinline nounwind uwtable
define internal i64 @mbedtls_get_unaligned_uint64(ptr noundef %0) #6 {
  %2 = alloca ptr, align 8
  %3 = alloca i64, align 8
  store ptr %0, ptr %2, align 8, !tbaa !30
  call void @llvm.lifetime.start.p0(i64 8, ptr %3) #9
  %4 = load ptr, ptr %2, align 8, !tbaa !30
  call void @llvm.memcpy.p0.p0.i64(ptr align 8 %3, ptr align 1 %4, i64 8, i1 false)
  %5 = load i64, ptr %3, align 8, !tbaa !14
  call void @llvm.lifetime.end.p0(i64 8, ptr %3) #9
  ret i64 %5
}

; Function Attrs: alwaysinline nounwind uwtable
define internal void @mbedtls_xor(ptr noundef %0, ptr noundef %1, ptr noundef %2, i64 noundef %3) #6 {
  %5 = alloca ptr, align 8
  %6 = alloca ptr, align 8
  %7 = alloca ptr, align 8
  %8 = alloca i64, align 8
  %9 = alloca i64, align 8
  %10 = alloca i64, align 8
  store ptr %0, ptr %5, align 8, !tbaa !10
  store ptr %1, ptr %6, align 8, !tbaa !10
  store ptr %2, ptr %7, align 8, !tbaa !10
  store i64 %3, ptr %8, align 8, !tbaa !14
  call void @llvm.lifetime.start.p0(i64 8, ptr %9) #9
  store i64 0, ptr %9, align 8, !tbaa !14
  br label %11

11:                                               ; preds = %30, %4
  %12 = load i64, ptr %9, align 8, !tbaa !14
  %13 = add i64 %12, 8
  %14 = load i64, ptr %8, align 8, !tbaa !14
  %15 = icmp ule i64 %13, %14
  br i1 %15, label %16, label %33

16:                                               ; preds = %11
  call void @llvm.lifetime.start.p0(i64 8, ptr %10) #9
  %17 = load ptr, ptr %6, align 8, !tbaa !10
  %18 = load i64, ptr %9, align 8, !tbaa !14
  %19 = getelementptr inbounds nuw i8, ptr %17, i64 %18
  %20 = call i64 @mbedtls_get_unaligned_uint64(ptr noundef %19)
  %21 = load ptr, ptr %7, align 8, !tbaa !10
  %22 = load i64, ptr %9, align 8, !tbaa !14
  %23 = getelementptr inbounds nuw i8, ptr %21, i64 %22
  %24 = call i64 @mbedtls_get_unaligned_uint64(ptr noundef %23)
  %25 = xor i64 %20, %24
  store i64 %25, ptr %10, align 8, !tbaa !14
  %26 = load ptr, ptr %5, align 8, !tbaa !10
  %27 = load i64, ptr %9, align 8, !tbaa !14
  %28 = getelementptr inbounds nuw i8, ptr %26, i64 %27
  %29 = load i64, ptr %10, align 8, !tbaa !14
  call void @mbedtls_put_unaligned_uint64(ptr noundef %28, i64 noundef %29)
  call void @llvm.lifetime.end.p0(i64 8, ptr %10) #9
  br label %30

30:                                               ; preds = %16
  %31 = load i64, ptr %9, align 8, !tbaa !14
  %32 = add i64 %31, 8
  store i64 %32, ptr %9, align 8, !tbaa !14
  br label %11, !llvm.loop !31

33:                                               ; preds = %11
  br label %34

34:                                               ; preds = %54, %33
  %35 = load i64, ptr %9, align 8, !tbaa !14
  %36 = load i64, ptr %8, align 8, !tbaa !14
  %37 = icmp ult i64 %35, %36
  br i1 %37, label %38, label %57

38:                                               ; preds = %34
  %39 = load ptr, ptr %6, align 8, !tbaa !10
  %40 = load i64, ptr %9, align 8, !tbaa !14
  %41 = getelementptr inbounds nuw i8, ptr %39, i64 %40
  %42 = load i8, ptr %41, align 1, !tbaa !28
  %43 = zext i8 %42 to i32
  %44 = load ptr, ptr %7, align 8, !tbaa !10
  %45 = load i64, ptr %9, align 8, !tbaa !14
  %46 = getelementptr inbounds nuw i8, ptr %44, i64 %45
  %47 = load i8, ptr %46, align 1, !tbaa !28
  %48 = zext i8 %47 to i32
  %49 = xor i32 %43, %48
  %50 = trunc i32 %49 to i8
  %51 = load ptr, ptr %5, align 8, !tbaa !10
  %52 = load i64, ptr %9, align 8, !tbaa !14
  %53 = getelementptr inbounds nuw i8, ptr %51, i64 %52
  store i8 %50, ptr %53, align 1, !tbaa !28
  br label %54

54:                                               ; preds = %38
  %55 = load i64, ptr %9, align 8, !tbaa !14
  %56 = add i64 %55, 1
  store i64 %56, ptr %9, align 8, !tbaa !14
  br label %34, !llvm.loop !32

57:                                               ; preds = %34
  call void @llvm.lifetime.end.p0(i64 8, ptr %9) #9
  ret void
}

; Function Attrs: alwaysinline nounwind uwtable
define internal void @mbedtls_put_unaligned_uint64(ptr noundef %0, i64 noundef %1) #6 {
  %3 = alloca ptr, align 8
  %4 = alloca i64, align 8
  store ptr %0, ptr %3, align 8, !tbaa !30
  store i64 %1, ptr %4, align 8, !tbaa !14
  %5 = load ptr, ptr %3, align 8, !tbaa !30
  call void @llvm.memcpy.p0.p0.i64(ptr align 1 %5, ptr align 8 %4, i64 8, i1 false)
  ret void
}

; Function Attrs: nounwind uwtable
define hidden i32 @mbedtls_gcm_starts(ptr noundef %0, i32 noundef %1, ptr noundef %2, i64 noundef %3) #0 {
  %5 = alloca i32, align 4
  %6 = alloca ptr, align 8
  %7 = alloca i32, align 4
  %8 = alloca ptr, align 8
  %9 = alloca i64, align 8
  %10 = alloca i32, align 4
  %11 = alloca [16 x i8], align 16
  %12 = alloca ptr, align 8
  %13 = alloca i64, align 8
  %14 = alloca i64, align 8
  %15 = alloca i64, align 8
  %16 = alloca i32, align 4
  store ptr %0, ptr %6, align 8, !tbaa !3
  store i32 %1, ptr %7, align 4, !tbaa !8
  store ptr %2, ptr %8, align 8, !tbaa !10
  store i64 %3, ptr %9, align 8, !tbaa !14
  call void @llvm.lifetime.start.p0(i64 4, ptr %10) #9
  store i32 -110, ptr %10, align 4, !tbaa !8
  call void @llvm.lifetime.start.p0(i64 16, ptr %11) #9
  call void @llvm.lifetime.start.p0(i64 8, ptr %12) #9
  call void @llvm.lifetime.start.p0(i64 8, ptr %13) #9
  call void @llvm.lifetime.start.p0(i64 8, ptr %14) #9
  call void @llvm.lifetime.start.p0(i64 8, ptr %15) #9
  store i64 0, ptr %15, align 8, !tbaa !14
  %17 = load i64, ptr %9, align 8, !tbaa !14
  %18 = icmp eq i64 %17, 0
  br i1 %18, label %23, label %19

19:                                               ; preds = %4
  %20 = load i64, ptr %9, align 8, !tbaa !14
  %21 = lshr i64 %20, 61
  %22 = icmp ne i64 %21, 0
  br i1 %22, label %23, label %24

23:                                               ; preds = %19, %4
  store i32 -20, ptr %5, align 4
  store i32 1, ptr %16, align 4
  br label %121

24:                                               ; preds = %19
  %25 = load ptr, ptr %6, align 8, !tbaa !3
  %26 = getelementptr inbounds nuw %struct.mbedtls_gcm_context, ptr %25, i32 0, i32 5
  %27 = getelementptr inbounds [16 x i8], ptr %26, i64 0, i64 0
  call void @llvm.memset.p0.i64(ptr align 8 %27, i8 0, i64 16, i1 false)
  %28 = load ptr, ptr %6, align 8, !tbaa !3
  %29 = getelementptr inbounds nuw %struct.mbedtls_gcm_context, ptr %28, i32 0, i32 6
  %30 = getelementptr inbounds [16 x i8], ptr %29, i64 0, i64 0
  call void @llvm.memset.p0.i64(ptr align 8 %30, i8 0, i64 16, i1 false)
  %31 = load i32, ptr %7, align 4, !tbaa !8
  %32 = trunc i32 %31 to i8
  %33 = load ptr, ptr %6, align 8, !tbaa !3
  %34 = getelementptr inbounds nuw %struct.mbedtls_gcm_context, ptr %33, i32 0, i32 7
  store i8 %32, ptr %34, align 8, !tbaa !25
  %35 = load ptr, ptr %6, align 8, !tbaa !3
  %36 = getelementptr inbounds nuw %struct.mbedtls_gcm_context, ptr %35, i32 0, i32 2
  store i64 0, ptr %36, align 8, !tbaa !26
  %37 = load ptr, ptr %6, align 8, !tbaa !3
  %38 = getelementptr inbounds nuw %struct.mbedtls_gcm_context, ptr %37, i32 0, i32 3
  store i64 0, ptr %38, align 8, !tbaa !27
  %39 = load i64, ptr %9, align 8, !tbaa !14
  %40 = icmp eq i64 %39, 12
  br i1 %40, label %41, label %50

41:                                               ; preds = %24
  %42 = load ptr, ptr %6, align 8, !tbaa !3
  %43 = getelementptr inbounds nuw %struct.mbedtls_gcm_context, ptr %42, i32 0, i32 5
  %44 = getelementptr inbounds [16 x i8], ptr %43, i64 0, i64 0
  %45 = load ptr, ptr %8, align 8, !tbaa !10
  %46 = load i64, ptr %9, align 8, !tbaa !14
  call void @llvm.memcpy.p0.p0.i64(ptr align 8 %44, ptr align 1 %45, i64 %46, i1 false)
  %47 = load ptr, ptr %6, align 8, !tbaa !3
  %48 = getelementptr inbounds nuw %struct.mbedtls_gcm_context, ptr %47, i32 0, i32 5
  %49 = getelementptr inbounds [16 x i8], ptr %48, i64 0, i64 15
  store i8 1, ptr %49, align 1, !tbaa !28
  br label %106

50:                                               ; preds = %24
  %51 = getelementptr inbounds [16 x i8], ptr %11, i64 0, i64 0
  call void @llvm.memset.p0.i64(ptr align 16 %51, i8 0, i64 16, i1 false)
  %52 = load i64, ptr %9, align 8, !tbaa !14
  %53 = mul i64 %52, 8
  store i64 %53, ptr %14, align 8, !tbaa !14
  %54 = getelementptr inbounds [16 x i8], ptr %11, i64 0, i64 0
  %55 = getelementptr inbounds i8, ptr %54, i64 8
  %56 = load i64, ptr %14, align 8, !tbaa !14
  %57 = call i64 @llvm.bswap.i64(i64 %56)
  call void @mbedtls_put_unaligned_uint64(ptr noundef %55, i64 noundef %57)
  %58 = load ptr, ptr %8, align 8, !tbaa !10
  store ptr %58, ptr %12, align 8, !tbaa !10
  br label %59

59:                                               ; preds = %68, %50
  %60 = load i64, ptr %9, align 8, !tbaa !14
  %61 = icmp ugt i64 %60, 0
  br i1 %61, label %62, label %91

62:                                               ; preds = %59
  %63 = load i64, ptr %9, align 8, !tbaa !14
  %64 = icmp ult i64 %63, 16
  br i1 %64, label %65, label %67

65:                                               ; preds = %62
  %66 = load i64, ptr %9, align 8, !tbaa !14
  br label %68

67:                                               ; preds = %62
  br label %68

68:                                               ; preds = %67, %65
  %69 = phi i64 [ %66, %65 ], [ 16, %67 ]
  store i64 %69, ptr %13, align 8, !tbaa !14
  %70 = load ptr, ptr %6, align 8, !tbaa !3
  %71 = getelementptr inbounds nuw %struct.mbedtls_gcm_context, ptr %70, i32 0, i32 5
  %72 = getelementptr inbounds [16 x i8], ptr %71, i64 0, i64 0
  %73 = load ptr, ptr %6, align 8, !tbaa !3
  %74 = getelementptr inbounds nuw %struct.mbedtls_gcm_context, ptr %73, i32 0, i32 5
  %75 = getelementptr inbounds [16 x i8], ptr %74, i64 0, i64 0
  %76 = load ptr, ptr %12, align 8, !tbaa !10
  %77 = load i64, ptr %13, align 8, !tbaa !14
  call void @mbedtls_xor(ptr noundef %72, ptr noundef %75, ptr noundef %76, i64 noundef %77)
  %78 = load ptr, ptr %6, align 8, !tbaa !3
  %79 = load ptr, ptr %6, align 8, !tbaa !3
  %80 = getelementptr inbounds nuw %struct.mbedtls_gcm_context, ptr %79, i32 0, i32 5
  %81 = getelementptr inbounds [16 x i8], ptr %80, i64 0, i64 0
  %82 = load ptr, ptr %6, align 8, !tbaa !3
  %83 = getelementptr inbounds nuw %struct.mbedtls_gcm_context, ptr %82, i32 0, i32 5
  %84 = getelementptr inbounds [16 x i8], ptr %83, i64 0, i64 0
  call void @gcm_mult(ptr noundef %78, ptr noundef %81, ptr noundef %84)
  %85 = load i64, ptr %13, align 8, !tbaa !14
  %86 = load i64, ptr %9, align 8, !tbaa !14
  %87 = sub i64 %86, %85
  store i64 %87, ptr %9, align 8, !tbaa !14
  %88 = load i64, ptr %13, align 8, !tbaa !14
  %89 = load ptr, ptr %12, align 8, !tbaa !10
  %90 = getelementptr inbounds nuw i8, ptr %89, i64 %88
  store ptr %90, ptr %12, align 8, !tbaa !10
  br label %59, !llvm.loop !29

91:                                               ; preds = %59
  %92 = load ptr, ptr %6, align 8, !tbaa !3
  %93 = getelementptr inbounds nuw %struct.mbedtls_gcm_context, ptr %92, i32 0, i32 5
  %94 = getelementptr inbounds [16 x i8], ptr %93, i64 0, i64 0
  %95 = load ptr, ptr %6, align 8, !tbaa !3
  %96 = getelementptr inbounds nuw %struct.mbedtls_gcm_context, ptr %95, i32 0, i32 5
  %97 = getelementptr inbounds [16 x i8], ptr %96, i64 0, i64 0
  %98 = getelementptr inbounds [16 x i8], ptr %11, i64 0, i64 0
  call void @mbedtls_xor(ptr noundef %94, ptr noundef %97, ptr noundef %98, i64 noundef 16)
  %99 = load ptr, ptr %6, align 8, !tbaa !3
  %100 = load ptr, ptr %6, align 8, !tbaa !3
  %101 = getelementptr inbounds nuw %struct.mbedtls_gcm_context, ptr %100, i32 0, i32 5
  %102 = getelementptr inbounds [16 x i8], ptr %101, i64 0, i64 0
  %103 = load ptr, ptr %6, align 8, !tbaa !3
  %104 = getelementptr inbounds nuw %struct.mbedtls_gcm_context, ptr %103, i32 0, i32 5
  %105 = getelementptr inbounds [16 x i8], ptr %104, i64 0, i64 0
  call void @gcm_mult(ptr noundef %99, ptr noundef %102, ptr noundef %105)
  br label %106

106:                                              ; preds = %91, %41
  %107 = load ptr, ptr %6, align 8, !tbaa !3
  %108 = getelementptr inbounds nuw %struct.mbedtls_gcm_context, ptr %107, i32 0, i32 0
  %109 = load ptr, ptr %6, align 8, !tbaa !3
  %110 = getelementptr inbounds nuw %struct.mbedtls_gcm_context, ptr %109, i32 0, i32 5
  %111 = getelementptr inbounds [16 x i8], ptr %110, i64 0, i64 0
  %112 = load ptr, ptr %6, align 8, !tbaa !3
  %113 = getelementptr inbounds nuw %struct.mbedtls_gcm_context, ptr %112, i32 0, i32 4
  %114 = getelementptr inbounds [16 x i8], ptr %113, i64 0, i64 0
  %115 = call i32 @mbedtls_cipher_update(ptr noundef %108, ptr noundef %111, i64 noundef 16, ptr noundef %114, ptr noundef %15)
  store i32 %115, ptr %10, align 4, !tbaa !8
  %116 = load i32, ptr %10, align 4, !tbaa !8
  %117 = icmp ne i32 %116, 0
  br i1 %117, label %118, label %120

118:                                              ; preds = %106
  %119 = load i32, ptr %10, align 4, !tbaa !8
  store i32 %119, ptr %5, align 4
  store i32 1, ptr %16, align 4
  br label %121

120:                                              ; preds = %106
  store i32 0, ptr %5, align 4
  store i32 1, ptr %16, align 4
  br label %121

121:                                              ; preds = %120, %118, %23
  call void @llvm.lifetime.end.p0(i64 8, ptr %15) #9
  call void @llvm.lifetime.end.p0(i64 8, ptr %14) #9
  call void @llvm.lifetime.end.p0(i64 8, ptr %13) #9
  call void @llvm.lifetime.end.p0(i64 8, ptr %12) #9
  call void @llvm.lifetime.end.p0(i64 16, ptr %11) #9
  call void @llvm.lifetime.end.p0(i64 4, ptr %10) #9
  %122 = load i32, ptr %5, align 4
  ret i32 %122
}