; Function Attrs: nounwind uwtable
define hidden i32 @mbedtls_gcm_starts(ptr noundef %0, i32 noundef %1, ptr noundef readonly captures(none) %2, i64 noundef %3) local_unnamed_addr #2 {
  %5 = alloca i64, align 8
  call void @llvm.lifetime.start.p0(i64 8, ptr nonnull %5) #11
  store i64 0, ptr %5, align 8, !tbaa !3
  %6 = add i64 %3, -1
  %or.cond = icmp ult i64 %6, 2305843009213693951
  br i1 %or.cond, label %7, label %37

7:                                                ; preds = %4
  %8 = getelementptr inbounds nuw i8, ptr %0, i64 384
  %9 = trunc i32 %1 to i8
  %10 = getelementptr inbounds nuw i8, ptr %0, i64 416
  tail call void @llvm.memset.p0.i64(ptr noundef nonnull align 8 dereferenceable(32) %8, i8 0, i64 32, i1 false)
  store i8 %9, ptr %10, align 8, !tbaa !20
  %11 = getelementptr inbounds nuw i8, ptr %0, i64 352
  %12 = icmp eq i64 %3, 12
  tail call void @llvm.memset.p0.i64(ptr noundef nonnull align 8 dereferenceable(16) %11, i8 0, i64 16, i1 false)
  br i1 %12, label %13, label %.lr.ph62.preheader

13:                                               ; preds = %7
  tail call void @llvm.memcpy.p0.p0.i64(ptr noundef nonnull align 8 dereferenceable(12) %8, ptr noundef nonnull align 1 dereferenceable(12) %2, i64 12, i1 false)
  %14 = getelementptr inbounds nuw i8, ptr %0, i64 399
  store i8 1, ptr %14, align 1, !tbaa !14
  br label %34

.lr.ph62.preheader:                               ; preds = %7
  %15 = shl nuw i64 %3, 3
  %16 = tail call i64 @llvm.bswap.i64(i64 %15)
  br label %.lr.ph62

.lr.ph62:                                         ; preds = %.lr.ph62.preheader, %mbedtls_xor.exit
  %.04061 = phi i64 [ %30, %mbedtls_xor.exit ], [ %3, %.lr.ph62.preheader ]
  %.04160 = phi ptr [ %31, %mbedtls_xor.exit ], [ %2, %.lr.ph62.preheader ]
  %17 = tail call i64 @llvm.umin.i64(i64 %.04061, i64 16)
  %.not.i55 = icmp ult i64 %.04061, 8
  br i1 %.not.i55, label %.preheader54, label %.lr.ph

.preheader54:                                     ; preds = %.lr.ph, %.lr.ph62
  %.0.i.lcssa = phi i64 [ 0, %.lr.ph62 ], [ %19, %.lr.ph ]
  %18 = icmp samesign ult i64 %.0.i.lcssa, %17
  br i1 %18, label %.lr.ph58, label %mbedtls_xor.exit

.lr.ph:                                           ; preds = %.lr.ph62, %.lr.ph
  %19 = phi i64 [ %23, %.lr.ph ], [ 8, %.lr.ph62 ]
  %.0.i56 = phi i64 [ 8, %.lr.ph ], [ 0, %.lr.ph62 ]
  %20 = getelementptr inbounds nuw i8, ptr %8, i64 %.0.i56
  %.0.copyload.i52 = load i64, ptr %20, align 1
  %21 = getelementptr inbounds nuw i8, ptr %.04160, i64 %.0.i56
  %.0.copyload.i51 = load i64, ptr %21, align 1
  %22 = xor i64 %.0.copyload.i51, %.0.copyload.i52
  store i64 %22, ptr %20, align 1
  %23 = add nuw nsw i64 %19, 8
  %.not.i = icmp samesign ugt i64 %23, %17
  br i1 %.not.i, label %.preheader54, label %.lr.ph, !llvm.loop !21

.lr.ph58:                                         ; preds = %.preheader54, %.lr.ph58
  %.1.i57 = phi i64 [ %29, %.lr.ph58 ], [ %.0.i.lcssa, %.preheader54 ]
  %24 = getelementptr inbounds nuw i8, ptr %8, i64 %.1.i57
  %25 = load i8, ptr %24, align 1, !tbaa !14
  %26 = getelementptr inbounds nuw i8, ptr %.04160, i64 %.1.i57
  %27 = load i8, ptr %26, align 1, !tbaa !14
  %28 = xor i8 %27, %25
  store i8 %28, ptr %24, align 1, !tbaa !14
  %29 = add nuw nsw i64 %.1.i57, 1
  %exitcond.not = icmp eq i64 %29, %17
  br i1 %exitcond.not, label %mbedtls_xor.exit, label %.lr.ph58, !llvm.loop !22

mbedtls_xor.exit:                                 ; preds = %.lr.ph58, %.preheader54
  tail call fastcc void @gcm_mult(ptr noundef nonnull %0, ptr noundef nonnull %8, ptr noundef nonnull %8)
  %30 = sub i64 %.04061, %17
  %31 = getelementptr inbounds nuw i8, ptr %.04160, i64 %17
  %.not44 = icmp eq i64 %30, 0
  br i1 %.not44, label %.preheader53, label %.lr.ph62, !llvm.loop !23

.preheader53:                                     ; preds = %mbedtls_xor.exit
  %32 = getelementptr inbounds nuw i8, ptr %0, i64 392
  %.0.copyload.i50.c = load i64, ptr %32, align 1
  %33 = xor i64 %16, %.0.copyload.i50.c
  store i64 %33, ptr %32, align 1
  tail call fastcc void @gcm_mult(ptr noundef nonnull %0, ptr noundef nonnull %8, ptr noundef nonnull %8)
  br label %34

34:                                               ; preds = %.preheader53, %13
  %35 = getelementptr inbounds nuw i8, ptr %0, i64 368
  %36 = call i32 @mbedtls_cipher_update(ptr noundef nonnull %0, ptr noundef nonnull %8, i64 noundef 16, ptr noundef nonnull %35, ptr noundef nonnull %5) #11
  br label %37

37:                                               ; preds = %34, %4
  %.0 = phi i32 [ -20, %4 ], [ %36, %34 ]
  call void @llvm.lifetime.end.p0(i64 8, ptr nonnull %5) #11
  ret i32 %.0
}